; Function Attrs: nounwind sspstrong uwtable
define internal i64 @load_ext(i64 noundef %0) #0 {
  tail call void @rb_scope_visibility_set(i32 noundef 1) #7
  %2 = inttoptr i64 %0 to ptr
  %3 = load i64, ptr %2, align 8, !tbaa !44, !noalias !265
  %4 = and i64 %3, 8192
  %.not.i.i = icmp eq i64 %4, 0
  %5 = getelementptr inbounds nuw i8, ptr %2, i64 24
  br i1 %.not.i.i, label %RSTRING_PTR.exit, label %6

6:                                                ; preds = %1
  %.sroa.2.0.copyload.i = load ptr, ptr %5, align 8
  br label %RSTRING_PTR.exit

RSTRING_PTR.exit:                                 ; preds = %1, %6
  %.sroa.2.0.i = phi ptr [ %.sroa.2.0.copyload.i, %6 ], [ %5, %1 ]
  %7 = tail call ptr @dln_load(ptr noundef %.sroa.2.0.i) #7
  %8 = ptrtoint ptr %7 to i64
  ret i64 %8
}